; Function Attrs: mustprogress nounwind uwtable
define dso_local noundef zeroext i1 @_ZN4llvm16LTOCodeGenerator15compile_to_fileEPPKc(ptr noundef nonnull align 8 dereferenceable(1680) %0, ptr noundef writeonly captures(none) %1) local_unnamed_addr #1 align 2 {
  %3 = tail call noundef zeroext i1 @_ZN4llvm16LTOCodeGenerator8optimizeEv(ptr noundef nonnull align 8 dereferenceable(1680) %0)
  br i1 %3, label %4, label %6

4:                                                ; preds = %2
  %5 = tail call noundef zeroext i1 @_ZN4llvm16LTOCodeGenerator22compileOptimizedToFileEPPKc(ptr noundef nonnull align 8 dereferenceable(1680) %0, ptr noundef %1)
  br label %6

6:                                                ; preds = %2, %4
  %.0 = phi i1 [ %5, %4 ], [ false, %2 ]
  ret i1 %.0
}